target datalayout = "e-m:e-p270:32:32-p271:32:32-p272:64:64-i64:64-i128:128-f80:128-n8:16:32:64-S128"
target triple = "x86_64-pc-linux-gnu"

@.str.48 = private unnamed_addr constant [18 x i8] c"keyword truncated\00", align 1
@.str.49 = private unnamed_addr constant [35 x i8] c"keyword \22@1\22: bad character '0x@2'\00", align 1

; Function Attrs: nounwind uwtable
define hidden i32 @png_check_keyword(ptr noalias noundef %0, ptr noundef %1, ptr noundef %2) #0 {
  %4 = alloca i32, align 4
  %5 = alloca ptr, align 8
  %6 = alloca ptr, align 8
  %7 = alloca ptr, align 8
  %8 = alloca ptr, align 8
  %9 = alloca i32, align 4
  %10 = alloca i32, align 4
  %11 = alloca i32, align 4
  %12 = alloca i8, align 1
  %13 = alloca [8 x [32 x i8]], align 16
  store ptr %0, ptr %5, align 8
  store ptr %1, ptr %6, align 8
  store ptr %2, ptr %7, align 8
  %14 = load ptr, ptr %6, align 8
  store ptr %14, ptr %8, align 8
  store i32 0, ptr %9, align 4
  store i32 0, ptr %10, align 4
  store i32 1, ptr %11, align 4
  %15 = load ptr, ptr %6, align 8
  %16 = icmp eq ptr %15, null
  br i1 %16, label %17, label %19

17:                                               ; preds = %3
  %18 = load ptr, ptr %7, align 8
  store i8 0, ptr %18, align 1
  store i32 0, ptr %4, align 4
  br label %115

19:                                               ; preds = %3
  br label %20

20:                                               ; preds = %74, %19
  %21 = load ptr, ptr %6, align 8
  %22 = load i8, ptr %21, align 1
  %23 = sext i8 %22 to i32
  %24 = icmp ne i32 %23, 0
  br i1 %24, label %25, label %28

25:                                               ; preds = %20
  %26 = load i32, ptr %9, align 4
  %27 = icmp ult i32 %26, 79
  br label %28

28:                                               ; preds = %25, %20
  %29 = phi i1 [ false, %20 ], [ %27, %25 ]
  br i1 %29, label %30, label %75

30:                                               ; preds = %28
  %31 = load ptr, ptr %6, align 8
  %32 = getelementptr inbounds i8, ptr %31, i32 1
  store ptr %32, ptr %6, align 8
  %33 = load i8, ptr %31, align 1
  store i8 %33, ptr %12, align 1
  %34 = load i8, ptr %12, align 1
  %35 = zext i8 %34 to i32
  %36 = icmp sgt i32 %35, 32
  br i1 %36, label %37, label %41

37:                                               ; preds = %30
  %38 = load i8, ptr %12, align 1
  %39 = zext i8 %38 to i32
  %40 = icmp sle i32 %39, 126
  br i1 %40, label %45, label %41

41:                                               ; preds = %37, %30
  %42 = load i8, ptr %12, align 1
  %43 = zext i8 %42 to i32
  %44 = icmp sge i32 %43, 161
  br i1 %44, label %45, label %51

45:                                               ; preds = %41, %37
  %46 = load i8, ptr %12, align 1
  %47 = load ptr, ptr %7, align 8
  %48 = getelementptr inbounds i8, ptr %47, i32 1
  store ptr %48, ptr %7, align 8
  store i8 %46, ptr %47, align 1
  %49 = load i32, ptr %9, align 4
  %50 = add i32 %49, 1
  store i32 %50, ptr %9, align 4
  store i32 0, ptr %11, align 4
  br label %74

51:                                               ; preds = %41
  %52 = load i32, ptr %11, align 4
  %53 = icmp eq i32 %52, 0
  br i1 %53, label %54, label %66

54:                                               ; preds = %51
  %55 = load ptr, ptr %7, align 8
  %56 = getelementptr inbounds i8, ptr %55, i32 1
  store ptr %56, ptr %7, align 8
  store i8 32, ptr %55, align 1
  %57 = load i32, ptr %9, align 4
  %58 = add i32 %57, 1
  store i32 %58, ptr %9, align 4
  store i32 1, ptr %11, align 4
  %59 = load i8, ptr %12, align 1
  %60 = zext i8 %59 to i32
  %61 = icmp ne i32 %60, 32
  br i1 %61, label %62, label %65

62:                                               ; preds = %54
  %63 = load i8, ptr %12, align 1
  %64 = zext i8 %63 to i32
  store i32 %64, ptr %10, align 4
  br label %65

65:                                               ; preds = %62, %54
  br label %73

66:                                               ; preds = %51
  %67 = load i32, ptr %10, align 4
  %68 = icmp eq i32 %67, 0
  br i1 %68, label %69, label %72

69:                                               ; preds = %66
  %70 = load i8, ptr %12, align 1
  %71 = zext i8 %70 to i32
  store i32 %71, ptr %10, align 4
  br label %72

72:                                               ; preds = %69, %66
  br label %73

73:                                               ; preds = %72, %65
  br label %74

74:                                               ; preds = %73, %45
  br label %20, !llvm.loop !17

75:                                               ; preds = %28
  %76 = load i32, ptr %9, align 4
  %77 = icmp ugt i32 %76, 0
  br i1 %77, label %78, label %90

78:                                               ; preds = %75
  %79 = load i32, ptr %11, align 4
  %80 = icmp ne i32 %79, 0
  br i1 %80, label %81, label %90

81:                                               ; preds = %78
  %82 = load i32, ptr %9, align 4
  %83 = add i32 %82, -1
  store i32 %83, ptr %9, align 4
  %84 = load ptr, ptr %7, align 8
  %85 = getelementptr inbounds i8, ptr %84, i32 -1
  store ptr %85, ptr %7, align 8
  %86 = load i32, ptr %10, align 4
  %87 = icmp eq i32 %86, 0
  br i1 %87, label %88, label %89

88:                                               ; preds = %81
  store i32 32, ptr %10, align 4
  br label %89

89:                                               ; preds = %88, %81
  br label %90

90:                                               ; preds = %89, %78, %75
  %91 = load ptr, ptr %7, align 8
  store i8 0, ptr %91, align 1
  %92 = load i32, ptr %9, align 4
  %93 = icmp eq i32 %92, 0
  br i1 %93, label %94, label %95

94:                                               ; preds = %90
  store i32 0, ptr %4, align 4
  br label %115

95:                                               ; preds = %90
  %96 = load ptr, ptr %6, align 8
  %97 = load i8, ptr %96, align 1
  %98 = sext i8 %97 to i32
  %99 = icmp ne i32 %98, 0
  br i1 %99, label %100, label %102

100:                                              ; preds = %95
  %101 = load ptr, ptr %5, align 8
  call void @png_warning(ptr noundef %101, ptr noundef @.str.48)
  br label %113

102:                                              ; preds = %95
  %103 = load i32, ptr %10, align 4
  %104 = icmp ne i32 %103, 0
  br i1 %104, label %105, label %112

105:                                              ; preds = %102
  %106 = getelementptr inbounds [8 x [32 x i8]], ptr %13, i64 0, i64 0
  %107 = load ptr, ptr %8, align 8
  call void @png_warning_parameter(ptr noundef %106, i32 noundef 1, ptr noundef %107)
  %108 = getelementptr inbounds [8 x [32 x i8]], ptr %13, i64 0, i64 0
  %109 = load i32, ptr %10, align 4
  call void @png_warning_parameter_signed(ptr noundef %108, i32 noundef 2, i32 noundef 4, i32 noundef %109)
  %110 = load ptr, ptr %5, align 8
  %111 = getelementptr inbounds [8 x [32 x i8]], ptr %13, i64 0, i64 0
  call void @png_formatted_warning(ptr noundef %110, ptr noundef %111, ptr noundef @.str.49)
  br label %112

112:                                              ; preds = %105, %102
  br label %113

113:                                              ; preds = %112, %100
  %114 = load i32, ptr %9, align 4
  store i32 %114, ptr %4, align 4
  br label %115

115:                                              ; preds = %113, %94, %17
  %116 = load i32, ptr %4, align 4
  ret i32 %116
}